; Function Attrs: nounwind uwtable
define ptr @lv_event_get_draw_task(ptr noundef %0) local_unnamed_addr #0 {
  %2 = getelementptr inbounds nuw i8, ptr %0, i64 16
  %3 = load i32, ptr %2, align 8, !tbaa !10
  %4 = icmp eq i32 %3, 34
  br i1 %4, label %5, label %7

5:                                                ; preds = %1
  %6 = tail call ptr @lv_event_get_param(ptr noundef nonnull %0) #4
  br label %7

7:                                                ; preds = %1, %5
  %.0 = phi ptr [ %6, %5 ], [ null, %1 ]
  ret ptr %.0
}